; Function Attrs: nounwind uwtable
define dso_local i32 @jv_object_length(i64 %0, ptr %1) local_unnamed_addr #2 {
  %.sroa.1.0.extract.shift.i.i = lshr i64 %0, 32
  %.sroa.1.0.extract.trunc.i.i = trunc nuw i64 %.sroa.1.0.extract.shift.i.i to i32
  %3 = icmp sgt i32 %.sroa.1.0.extract.trunc.i.i, 0
  br i1 %3, label %.lr.ph.i, label %jvp_object_length.exit

.lr.ph.i:                                         ; preds = %2
  %4 = getelementptr i8, ptr %1, i64 16
  br label %5

5:                                                ; preds = %5, %.lr.ph.i
  %indvars.iv.i = phi i64 [ 0, %.lr.ph.i ], [ %indvars.iv.next.i, %5 ]
  %.09.i = phi i32 [ 0, %.lr.ph.i ], [ %spec.select.i, %5 ]
  %.idx.i = mul nuw nsw i64 %indvars.iv.i, 40
  %6 = getelementptr i8, ptr %4, i64 %.idx.i
  %7 = load i64, ptr %6, align 8
  %8 = and i64 %7, 15
  %.not.i = icmp ne i64 %8, 1
  %9 = zext i1 %.not.i to i32
  %spec.select.i = add nuw nsw i32 %.09.i, %9
  %indvars.iv.next.i = add nuw nsw i64 %indvars.iv.i, 1
  %exitcond.not.i = icmp eq i64 %indvars.iv.next.i, %.sroa.1.0.extract.shift.i.i
  br i1 %exitcond.not.i, label %jvp_object_length.exit, label %5, !llvm.loop !45

jvp_object_length.exit:                           ; preds = %5, %2
  %.0.lcssa.i = phi i32 [ 0, %2 ], [ %spec.select.i, %5 ]
  tail call void @jv_free(i64 %0, ptr %1)
  ret i32 %.0.lcssa.i
}